target datalayout = "e-m:e-p270:32:32-p271:32:32-p272:64:64-i64:64-i128:128-f80:128-n8:16:32:64-S128"
target triple = "x86_64-unknown-linux-gnu"

%"class.icu_75::UnicodeString" = type { %"class.icu_75::Replaceable", %"union.icu_75::UnicodeString::StackBufferOrFields" }
%"class.icu_75::Replaceable" = type { %"class.icu_75::UObject" }
%"class.icu_75::UObject" = type { ptr }
%"union.icu_75::UnicodeString::StackBufferOrFields" = type { %struct.anon.0, [32 x i8] }
%struct.anon.0 = type { i16, i32, i32, ptr }
%struct.anon = type { i16, [27 x i16] }

@_ZTVN6icu_7513UnicodeStringE = external unnamed_addr constant { [13 x ptr] }, align 8
@_ZTVN6icu_7511ReplaceableE = external unnamed_addr constant { [13 x ptr] }, align 8
@_ZTVN6icu_757UObjectE = external unnamed_addr constant { [5 x ptr] }, align 8

; Function Attrs: mustprogress nounwind uwtable
define linkonce_odr void @_ZN6icu_757UObjectC2Ev(ptr noundef nonnull align 8 dereferenceable(8) %this) unnamed_addr #1 comdat align 2 {
entry:
  %this.addr = alloca ptr, align 8
  store ptr %this, ptr %this.addr, align 8
  %this1 = load ptr, ptr %this.addr, align 8
  store ptr getelementptr inbounds ({ [5 x ptr] }, ptr @_ZTVN6icu_757UObjectE, i32 0, i32 0, i32 2), ptr %this1, align 8
  ret void
}

; Function Attrs: mustprogress nounwind uwtable
define linkonce_odr void @_ZN6icu_7511ReplaceableC2Ev(ptr noundef nonnull align 8 dereferenceable(8) %this) unnamed_addr #1 comdat align 2 {
entry:
  %this.addr = alloca ptr, align 8
  store ptr %this, ptr %this.addr, align 8
  %this1 = load ptr, ptr %this.addr, align 8
  call void @_ZN6icu_757UObjectC2Ev(ptr noundef nonnull align 8 dereferenceable(8) %this1) #10
  store ptr getelementptr inbounds ({ [13 x ptr] }, ptr @_ZTVN6icu_7511ReplaceableE, i32 0, i32 0, i32 2), ptr %this1, align 8
  ret void
}

; Function Attrs: mustprogress uwtable
define linkonce_odr void @_ZN6icu_7513UnicodeStringC2Ev(ptr noundef nonnull align 8 dereferenceable(64) %this) unnamed_addr #0 comdat align 2 {
entry:
  %this.addr = alloca ptr, align 8
  store ptr %this, ptr %this.addr, align 8
  %this1 = load ptr, ptr %this.addr, align 8
  call void @_ZN6icu_7511ReplaceableC2Ev(ptr noundef nonnull align 8 dereferenceable(8) %this1)
  store ptr getelementptr inbounds ({ [13 x ptr] }, ptr @_ZTVN6icu_7513UnicodeStringE, i32 0, i32 0, i32 2), ptr %this1, align 8
  %fUnion2 = getelementptr inbounds %"class.icu_75::UnicodeString", ptr %this1, i32 0, i32 1
  %fLengthAndFlags = getelementptr inbounds %struct.anon, ptr %fUnion2, i32 0, i32 0
  store i16 2, ptr %fLengthAndFlags, align 8
  ret void
}

; Function Attrs: mustprogress uwtable
define noundef ptr @_ZN6icu_758ZoneMeta20createCustomTimeZoneEi(i32 noundef %offset) #0 align 2 personality ptr @__gxx_personality_v0 {
entry:
  %offset.addr = alloca i32, align 4
  %negative = alloca i8, align 1
  %tmp = alloca i32, align 4
  %hour = alloca i8, align 1
  %min = alloca i8, align 1
  %sec = alloca i8, align 1
  %zid = alloca %"class.icu_75::UnicodeString", align 8
  %exn.slot = alloca ptr, align 8
  %ehselector.slot = alloca i32, align 4
  %saved-rvalue = alloca ptr, align 8
  %cleanup.cond = alloca i1, align 1
  store i32 %offset, ptr %offset.addr, align 4
  store i8 0, ptr %negative, align 1
  %0 = load i32, ptr %offset.addr, align 4
  store i32 %0, ptr %tmp, align 4
  %1 = load i32, ptr %offset.addr, align 4
  %cmp = icmp slt i32 %1, 0
  br i1 %cmp, label %if.then, label %if.end

if.then:                                          ; preds = %entry
  store i8 1, ptr %negative, align 1
  %2 = load i32, ptr %offset.addr, align 4
  %sub = sub nsw i32 0, %2
  store i32 %sub, ptr %tmp, align 4
  br label %if.end

if.end:                                           ; preds = %if.then, %entry
  %3 = load i32, ptr %tmp, align 4
  %div = sdiv i32 %3, 1000
  store i32 %div, ptr %tmp, align 4
  %4 = load i32, ptr %tmp, align 4
  %rem = srem i32 %4, 60
  %conv = trunc i32 %rem to i8
  store i8 %conv, ptr %sec, align 1
  %5 = load i32, ptr %tmp, align 4
  %div1 = sdiv i32 %5, 60
  store i32 %div1, ptr %tmp, align 4
  %6 = load i32, ptr %tmp, align 4
  %rem2 = srem i32 %6, 60
  %conv3 = trunc i32 %rem2 to i8
  store i8 %conv3, ptr %min, align 1
  %7 = load i32, ptr %tmp, align 4
  %div4 = sdiv i32 %7, 60
  %conv5 = trunc i32 %div4 to i8
  store i8 %conv5, ptr %hour, align 1
  call void @_ZN6icu_7513UnicodeStringC2Ev(ptr noundef nonnull align 8 dereferenceable(64) %zid)
  %8 = load i8, ptr %hour, align 1
  %9 = load i8, ptr %min, align 1
  %10 = load i8, ptr %sec, align 1
  %11 = load i8, ptr %negative, align 1
  %call = invoke noundef nonnull align 8 dereferenceable(64) ptr @_ZN6icu_758ZoneMeta14formatCustomIDEhhhaRNS_13UnicodeStringE(i8 noundef zeroext %8, i8 noundef zeroext %9, i8 noundef zeroext %10, i8 noundef signext %11, ptr noundef nonnull align 8 dereferenceable(64) %zid)
          to label %invoke.cont unwind label %lpad

invoke.cont:                                      ; preds = %if.end
  %call6 = call noundef ptr @_ZN6icu_757UMemorynwEm(i64 noundef 160) #10
  %new.isnull = icmp eq ptr %call6, null
  store i1 false, ptr %cleanup.cond, align 1
  br i1 %new.isnull, label %new.cont, label %new.notnull

new.notnull:                                      ; preds = %invoke.cont
  store ptr %call6, ptr %saved-rvalue, align 8
  store i1 true, ptr %cleanup.cond, align 1
  %12 = load i32, ptr %offset.addr, align 4
  invoke void @_ZN6icu_7514SimpleTimeZoneC1EiRKNS_13UnicodeStringE(ptr noundef nonnull align 8 dereferenceable(160) %call6, i32 noundef %12, ptr noundef nonnull align 8 dereferenceable(64) %zid)
          to label %invoke.cont8 unwind label %lpad7

invoke.cont8:                                     ; preds = %new.notnull
  br label %new.cont

new.cont:                                         ; preds = %invoke.cont8, %invoke.cont
  %13 = phi ptr [ %call6, %invoke.cont8 ], [ null, %invoke.cont ]
  call void @_ZN6icu_7513UnicodeStringD1Ev(ptr noundef nonnull align 8 dereferenceable(64) %zid) #10
  ret ptr %13

lpad:                                             ; preds = %if.end
  %14 = landingpad { ptr, i32 }
          cleanup
  %15 = extractvalue { ptr, i32 } %14, 0
  store ptr %15, ptr %exn.slot, align 8
  %16 = extractvalue { ptr, i32 } %14, 1
  store i32 %16, ptr %ehselector.slot, align 4
  br label %ehcleanup

lpad7:                                            ; preds = %new.notnull
  %17 = landingpad { ptr, i32 }
          cleanup
  %18 = extractvalue { ptr, i32 } %17, 0
  store ptr %18, ptr %exn.slot, align 8
  %19 = extractvalue { ptr, i32 } %17, 1
  store i32 %19, ptr %ehselector.slot, align 4
  %cleanup.is_active = load i1, ptr %cleanup.cond, align 1
  br i1 %cleanup.is_active, label %cleanup.action, label %cleanup.done

cleanup.action:                                   ; preds = %lpad7
  %20 = load ptr, ptr %saved-rvalue, align 8
  call void @_ZN6icu_757UMemorydlEPv(ptr noundef %20) #10
  br label %cleanup.done

cleanup.done:                                     ; preds = %cleanup.action, %lpad7
  br label %ehcleanup

ehcleanup:                                        ; preds = %cleanup.done, %lpad
  call void @_ZN6icu_7513UnicodeStringD1Ev(ptr noundef nonnull align 8 dereferenceable(64) %zid) #10
  br label %eh.resume

eh.resume:                                        ; preds = %ehcleanup
  %exn = load ptr, ptr %exn.slot, align 8
  %sel = load i32, ptr %ehselector.slot, align 4
  %lpad.val = insertvalue { ptr, i32 } poison, ptr %exn, 0
  %lpad.val9 = insertvalue { ptr, i32 } %lpad.val, i32 %sel, 1
  resume { ptr, i32 } %lpad.val9
}