; Function Attrs: mustprogress uwtable
define noundef ptr @_ZN6icu_758ZoneMeta20createCustomTimeZoneEi(i32 noundef %offset) local_unnamed_addr #0 align 2 personality ptr @__gxx_personality_v0 {
entry:
  %zid = alloca %"class.icu_75::UnicodeString", align 8
  %spec.select = tail call i32 @llvm.abs.i32(i32 %offset, i1 true)
  %offset.lobit = lshr i32 %offset, 31
  %spec.select9 = trunc i32 %offset.lobit to i8
  %div = udiv i32 %spec.select, 1000
  %rem = urem i32 %div, 60
  %conv = trunc i32 %rem to i8
  %div1 = udiv i32 %spec.select, 60000
  %rem2.lhs.trunc = trunc i32 %div1 to i16
  %rem210 = urem i16 %rem2.lhs.trunc, 60
  %conv3 = trunc i16 %rem210 to i8
  %div4 = udiv i32 %spec.select, 3600000
  %conv5 = trunc i32 %div4 to i8
  store ptr getelementptr inbounds ({ [13 x ptr] }, ptr @_ZTVN6icu_7513UnicodeStringE, i64 0, i32 0, i64 2), ptr %zid, align 8
  %fUnion2.i = getelementptr inbounds i8, ptr %zid, i64 8
  store i16 2, ptr %fUnion2.i, align 8
  %call = invoke noundef nonnull align 8 dereferenceable(64) ptr @_ZN6icu_758ZoneMeta14formatCustomIDEhhhaRNS_13UnicodeStringE(i8 noundef zeroext %conv5, i8 noundef zeroext %conv3, i8 noundef zeroext %conv, i8 noundef signext %spec.select9, ptr noundef nonnull align 8 dereferenceable(64) %zid)
          to label %invoke.cont unwind label %lpad

invoke.cont:                                      ; preds = %entry
  %call6 = call noundef ptr @_ZN6icu_757UMemorynwEm(i64 noundef 160) #12
  %new.isnull = icmp eq ptr %call6, null
  br i1 %new.isnull, label %new.cont, label %new.notnull

new.notnull:                                      ; preds = %invoke.cont
  invoke void @_ZN6icu_7514SimpleTimeZoneC1EiRKNS_13UnicodeStringE(ptr noundef nonnull align 8 dereferenceable(160) %call6, i32 noundef %offset, ptr noundef nonnull align 8 dereferenceable(64) %zid)
          to label %new.cont unwind label %lpad7

new.cont:                                         ; preds = %new.notnull, %invoke.cont
  call void @_ZN6icu_7513UnicodeStringD1Ev(ptr noundef nonnull align 8 dereferenceable(64) %zid) #12
  ret ptr %call6

lpad:                                             ; preds = %entry
  %0 = landingpad { ptr, i32 }
          cleanup
  br label %ehcleanup

lpad7:                                            ; preds = %new.notnull
  %1 = landingpad { ptr, i32 }
          cleanup
  call void @_ZN6icu_757UMemorydlEPv(ptr noundef nonnull %call6) #12
  br label %ehcleanup

ehcleanup:                                        ; preds = %lpad7, %lpad
  %.pn = phi { ptr, i32 } [ %1, %lpad7 ], [ %0, %lpad ]
  call void @_ZN6icu_7513UnicodeStringD1Ev(ptr noundef nonnull align 8 dereferenceable(64) %zid) #12
  resume { ptr, i32 } %.pn
}